target datalayout = "e-m:e-p270:32:32-p271:32:32-p272:64:64-i64:64-i128:128-f80:128-n8:16:32:64-S128"
target triple = "x86_64-pc-linux-gnu"

%"struct.Luau::TypePath::Path" = type { %"class.std::vector" }
%"class.std::vector" = type { %"struct.std::_Vector_base" }
%"struct.std::_Vector_base" = type { %"struct.std::_Vector_base<Luau::Variant<Luau::TypePath::Property, Luau::TypePath::Index, Luau::TypePath::TypeField, Luau::TypePath::PackField, Luau::TypePath::Reduction>, std::allocator<Luau::Variant<Luau::TypePath::Property, Luau::TypePath::Index, Luau::TypePath::TypeField, Luau::TypePath::PackField, Luau::TypePath::Reduction>>>::_Vector_impl" }
%"struct.std::_Vector_base<Luau::Variant<Luau::TypePath::Property, Luau::TypePath::Index, Luau::TypePath::TypeField, Luau::TypePath::PackField, Luau::TypePath::Reduction>, std::allocator<Luau::Variant<Luau::TypePath::Property, Luau::TypePath::Index, Luau::TypePath::TypeField, Luau::TypePath::PackField, Luau::TypePath::Reduction>>>::_Vector_impl" = type { %"struct.std::_Vector_base<Luau::Variant<Luau::TypePath::Property, Luau::TypePath::Index, Luau::TypePath::TypeField, Luau::TypePath::PackField, Luau::TypePath::Reduction>, std::allocator<Luau::Variant<Luau::TypePath::Property, Luau::TypePath::Index, Luau::TypePath::TypeField, Luau::TypePath::PackField, Luau::TypePath::Reduction>>>::_Vector_impl_data" }
%"struct.std::_Vector_base<Luau::Variant<Luau::TypePath::Property, Luau::TypePath::Index, Luau::TypePath::TypeField, Luau::TypePath::PackField, Luau::TypePath::Reduction>, std::allocator<Luau::Variant<Luau::TypePath::Property, Luau::TypePath::Index, Luau::TypePath::TypeField, Luau::TypePath::PackField, Luau::TypePath::Reduction>>>::_Vector_impl_data" = type { ptr, ptr, ptr }
%"struct.Luau::SubtypingReasoning" = type <{ %"struct.Luau::TypePath::Path", %"struct.Luau::TypePath::Path", i32, [4 x i8] }>
%"class.Luau::DenseHashSet" = type { %"class.Luau::detail::DenseHashTable" }
%"class.Luau::detail::DenseHashTable" = type <{ ptr, i64, i64, %"struct.Luau::SubtypingReasoning", [8 x i8] }>
%"struct.Luau::SubtypingResult" = type { i8, i8, i8, %"class.std::vector.0", %"class.Luau::DenseHashSet" }
%"class.std::vector.0" = type { %"struct.std::_Vector_base.1" }
%"struct.std::_Vector_base.1" = type { %"struct.std::_Vector_base<Luau::TypeError, std::allocator<Luau::TypeError>>::_Vector_impl" }
%"struct.std::_Vector_base<Luau::TypeError, std::allocator<Luau::TypeError>>::_Vector_impl" = type { %"struct.std::_Vector_base<Luau::TypeError, std::allocator<Luau::TypeError>>::_Vector_impl_data" }
%"struct.std::_Vector_base<Luau::TypeError, std::allocator<Luau::TypeError>>::_Vector_impl_data" = type { ptr, ptr, ptr }
%"class.Luau::DenseHashMap.47" = type { %"class.Luau::detail::DenseHashTable.48" }
%"class.Luau::detail::DenseHashTable.48" = type <{ ptr, i64, i64, ptr, [8 x i8] }>
%"class.Luau::DenseHashMap.50" = type { %"class.Luau::detail::DenseHashTable.51" }
%"class.Luau::detail::DenseHashTable.51" = type <{ ptr, i64, i64, ptr, [8 x i8] }>
%"struct.Luau::SubtypingEnvironment" = type { ptr, %"class.Luau::DenseHashMap.59", %"class.Luau::DenseHashMap.50", %"class.Luau::DenseHashMap.47", %"class.Luau::DenseHashMap.62" }
%"class.Luau::DenseHashMap.59" = type { %"class.Luau::detail::DenseHashTable.60" }
%"class.Luau::detail::DenseHashTable.60" = type <{ ptr, i64, i64, ptr, [8 x i8] }>
%"class.Luau::DenseHashMap.62" = type { %"class.Luau::detail::DenseHashTable.63" }
%"class.Luau::detail::DenseHashTable.63" = type <{ ptr, i64, i64, %"struct.std::pair", [8 x i8] }>
%"struct.std::pair" = type { ptr, ptr }
%"struct.std::pair.508" = type { %"struct.std::pair", %"struct.Luau::SubtypingResult" }

; Function Attrs: mustprogress nounwind uwtable
define linkonce_odr dso_local noundef i64 @_ZNK4Luau12TypePairHash7hashOneEPKNS_4TypeE(ptr noundef nonnull align 1 dereferenceable(1) %0, ptr noundef %1) #2 comdat align 2 {
  %3 = alloca ptr, align 8
  %4 = alloca ptr, align 8
  store ptr %0, ptr %3, align 8, !tbaa !1369
  store ptr %1, ptr %4, align 8, !tbaa !96
  %5 = load ptr, ptr %4, align 8, !tbaa !96
  %6 = ptrtoint ptr %5 to i64
  %7 = lshr i64 %6, 4
  %8 = load ptr, ptr %4, align 8, !tbaa !96
  %9 = ptrtoint ptr %8 to i64
  %10 = lshr i64 %9, 9
  %11 = xor i64 %7, %10
  ret i64 %11
}

; Function Attrs: inlinehint mustprogress nounwind uwtable
define linkonce_odr dso_local noundef zeroext i1 @_ZSteqIPKN4Luau4TypeES3_EbRKSt4pairIT_T0_ES9_(ptr noundef nonnull align 8 dereferenceable(16) %0, ptr noundef nonnull align 8 dereferenceable(16) %1) #3 comdat {
  %3 = alloca ptr, align 8
  %4 = alloca ptr, align 8
  store ptr %0, ptr %3, align 8, !tbaa !136
  store ptr %1, ptr %4, align 8, !tbaa !136
  %5 = load ptr, ptr %3, align 8, !tbaa !136
  %6 = getelementptr inbounds nuw %"struct.std::pair", ptr %5, i32 0, i32 0
  %7 = load ptr, ptr %6, align 8, !tbaa !194
  %8 = load ptr, ptr %4, align 8, !tbaa !136
  %9 = getelementptr inbounds nuw %"struct.std::pair", ptr %8, i32 0, i32 0
  %10 = load ptr, ptr %9, align 8, !tbaa !194
  %11 = icmp eq ptr %7, %10
  br i1 %11, label %12, label %20

12:                                               ; preds = %2
  %13 = load ptr, ptr %3, align 8, !tbaa !136
  %14 = getelementptr inbounds nuw %"struct.std::pair", ptr %13, i32 0, i32 1
  %15 = load ptr, ptr %14, align 8, !tbaa !195
  %16 = load ptr, ptr %4, align 8, !tbaa !136
  %17 = getelementptr inbounds nuw %"struct.std::pair", ptr %16, i32 0, i32 1
  %18 = load ptr, ptr %17, align 8, !tbaa !195
  %19 = icmp eq ptr %15, %18
  br label %20

20:                                               ; preds = %12, %2
  %21 = phi i1 [ false, %2 ], [ %19, %12 ]
  ret i1 %21
}

; Function Attrs: mustprogress nounwind uwtable
define linkonce_odr dso_local noundef nonnull align 8 dereferenceable(16) ptr @_ZN4Luau6detail16ItemInterfaceMapISt4pairIPKNS_4TypeES5_ENS_15SubtypingResultEE6getKeyERKS2_IS6_S7_E(ptr noundef nonnull align 8 dereferenceable(136) %0) #2 comdat align 2 {
  %2 = alloca ptr, align 8
  store ptr %0, ptr %2, align 8, !tbaa !139
  %3 = load ptr, ptr %2, align 8, !tbaa !139
  %4 = getelementptr inbounds nuw %"struct.std::pair.508", ptr %3, i32 0, i32 0
  ret ptr %4
}

; Function Attrs: mustprogress uwtable
define linkonce_odr dso_local noundef i64 @_ZNK4Luau12TypePairHashclERKSt4pairIPKNS_4TypeES4_E(ptr noundef nonnull align 1 dereferenceable(1) %0, ptr noundef nonnull align 8 dereferenceable(16) %1) #6 comdat align 2 {
  %3 = alloca ptr, align 8
  %4 = alloca ptr, align 8
  store ptr %0, ptr %3, align 8, !tbaa !1369
  store ptr %1, ptr %4, align 8, !tbaa !136
  %5 = load ptr, ptr %3, align 8
  %6 = load ptr, ptr %4, align 8, !tbaa !136
  %7 = getelementptr inbounds nuw %"struct.std::pair", ptr %6, i32 0, i32 0
  %8 = load ptr, ptr %7, align 8, !tbaa !194
  %9 = call noundef i64 @_ZNK4Luau12TypePairHash7hashOneEPKNS_4TypeE(ptr noundef nonnull align 1 dereferenceable(1) %5, ptr noundef %8)
  %10 = load ptr, ptr %4, align 8, !tbaa !136
  %11 = getelementptr inbounds nuw %"struct.std::pair", ptr %10, i32 0, i32 1
  %12 = load ptr, ptr %11, align 8, !tbaa !195
  %13 = call noundef i64 @_ZNK4Luau12TypePairHash7hashOneEPKNS_4TypeE(ptr noundef nonnull align 1 dereferenceable(1) %5, ptr noundef %12)
  %14 = shl i64 %13, 1
  %15 = xor i64 %9, %14
  ret i64 %15
}

; Function Attrs: mustprogress uwtable
define linkonce_odr dso_local noundef zeroext i1 @_ZNKSt8equal_toISt4pairIPKN4Luau4TypeES4_EEclERKS5_S8_(ptr noundef nonnull align 1 dereferenceable(1) %0, ptr noundef nonnull align 8 dereferenceable(16) %1, ptr noundef nonnull align 8 dereferenceable(16) %2) #6 comdat align 2 {
  %4 = alloca ptr, align 8
  %5 = alloca ptr, align 8
  %6 = alloca ptr, align 8
  store ptr %0, ptr %4, align 8, !tbaa !1367
  store ptr %1, ptr %5, align 8, !tbaa !136
  store ptr %2, ptr %6, align 8, !tbaa !136
  %7 = load ptr, ptr %5, align 8, !tbaa !136
  %8 = load ptr, ptr %6, align 8, !tbaa !136
  %9 = call noundef zeroext i1 @_ZSteqIPKN4Luau4TypeES3_EbRKSt4pairIT_T0_ES9_(ptr noundef nonnull align 8 dereferenceable(16) %7, ptr noundef nonnull align 8 dereferenceable(16) %8)
  ret i1 %9
}

; Function Attrs: mustprogress uwtable
define linkonce_odr dso_local noundef ptr @_ZNK4Luau6detail14DenseHashTableISt4pairIPKNS_4TypeES5_ES2_IS6_NS_15SubtypingResultEES2_IKS6_S7_ENS0_16ItemInterfaceMapIS6_S7_EENS_12TypePairHashESt8equal_toIS6_EE4findERS9_(ptr noundef nonnull align 8 dereferenceable(42) %0, ptr noundef nonnull align 8 dereferenceable(16) %1) #6 comdat align 2 {
  %3 = alloca ptr, align 8
  %4 = alloca ptr, align 8
  %5 = alloca ptr, align 8
  %6 = alloca i64, align 8
  %7 = alloca i64, align 8
  %8 = alloca i64, align 8
  %9 = alloca i32, align 4
  %10 = alloca ptr, align 8
  store ptr %0, ptr %4, align 8, !tbaa !1114
  store ptr %1, ptr %5, align 8, !tbaa !136
  %11 = load ptr, ptr %4, align 8
  %12 = getelementptr inbounds nuw %"class.Luau::detail::DenseHashTable.63", ptr %11, i32 0, i32 2
  %13 = load i64, ptr %12, align 8, !tbaa !1509
  %14 = icmp eq i64 %13, 0
  br i1 %14, label %15, label %16

15:                                               ; preds = %2
  store ptr null, ptr %3, align 8
  br label %72

16:                                               ; preds = %2
  %17 = getelementptr inbounds i8, ptr %11, i64 41
  %18 = load ptr, ptr %5, align 8, !tbaa !136
  %19 = getelementptr inbounds nuw %"class.Luau::detail::DenseHashTable.63", ptr %11, i32 0, i32 3
  %20 = call noundef zeroext i1 @_ZNKSt8equal_toISt4pairIPKN4Luau4TypeES4_EEclERKS5_S8_(ptr noundef nonnull align 1 dereferenceable(1) %17, ptr noundef nonnull align 8 dereferenceable(16) %18, ptr noundef nonnull align 8 dereferenceable(16) %19)
  br i1 %20, label %21, label %22

21:                                               ; preds = %16
  store ptr null, ptr %3, align 8
  br label %72

22:                                               ; preds = %16
  call void @llvm.lifetime.start.p0(i64 8, ptr %6) #4
  %23 = getelementptr inbounds nuw %"class.Luau::detail::DenseHashTable.63", ptr %11, i32 0, i32 1
  %24 = load i64, ptr %23, align 8, !tbaa !1117
  %25 = sub i64 %24, 1
  store i64 %25, ptr %6, align 8, !tbaa !57
  call void @llvm.lifetime.start.p0(i64 8, ptr %7) #4
  %26 = getelementptr inbounds i8, ptr %11, i64 40
  %27 = load ptr, ptr %5, align 8, !tbaa !136
  %28 = call noundef i64 @_ZNK4Luau12TypePairHashclERKSt4pairIPKNS_4TypeES4_E(ptr noundef nonnull align 1 dereferenceable(1) %26, ptr noundef nonnull align 8 dereferenceable(16) %27)
  %29 = load i64, ptr %6, align 8, !tbaa !57
  %30 = and i64 %28, %29
  store i64 %30, ptr %7, align 8, !tbaa !57
  call void @llvm.lifetime.start.p0(i64 8, ptr %8) #4
  store i64 0, ptr %8, align 8, !tbaa !57
  br label %31

31:                                               ; preds = %65, %22
  %32 = load i64, ptr %8, align 8, !tbaa !57
  %33 = load i64, ptr %6, align 8, !tbaa !57
  %34 = icmp ule i64 %32, %33
  br i1 %34, label %36, label %35

35:                                               ; preds = %31
  store i32 2, ptr %9, align 4
  br label %68

36:                                               ; preds = %31
  call void @llvm.lifetime.start.p0(i64 8, ptr %10) #4
  %37 = getelementptr inbounds nuw %"class.Luau::detail::DenseHashTable.63", ptr %11, i32 0, i32 0
  %38 = load ptr, ptr %37, align 8, !tbaa !1116
  %39 = load i64, ptr %7, align 8, !tbaa !57
  %40 = getelementptr inbounds nuw %"struct.std::pair.508", ptr %38, i64 %39
  store ptr %40, ptr %10, align 8, !tbaa !139
  %41 = getelementptr inbounds i8, ptr %11, i64 41
  %42 = load ptr, ptr %10, align 8, !tbaa !139
  %43 = call noundef nonnull align 8 dereferenceable(16) ptr @_ZN4Luau6detail16ItemInterfaceMapISt4pairIPKNS_4TypeES5_ENS_15SubtypingResultEE6getKeyERKS2_IS6_S7_E(ptr noundef nonnull align 8 dereferenceable(136) %42)
  %44 = load ptr, ptr %5, align 8, !tbaa !136
  %45 = call noundef zeroext i1 @_ZNKSt8equal_toISt4pairIPKN4Luau4TypeES4_EEclERKS5_S8_(ptr noundef nonnull align 1 dereferenceable(1) %41, ptr noundef nonnull align 8 dereferenceable(16) %43, ptr noundef nonnull align 8 dereferenceable(16) %44)
  br i1 %45, label %46, label %48

46:                                               ; preds = %36
  %47 = load ptr, ptr %10, align 8, !tbaa !139
  store ptr %47, ptr %3, align 8
  store i32 1, ptr %9, align 4
  br label %62

48:                                               ; preds = %36
  %49 = getelementptr inbounds i8, ptr %11, i64 41
  %50 = load ptr, ptr %10, align 8, !tbaa !139
  %51 = call noundef nonnull align 8 dereferenceable(16) ptr @_ZN4Luau6detail16ItemInterfaceMapISt4pairIPKNS_4TypeES5_ENS_15SubtypingResultEE6getKeyERKS2_IS6_S7_E(ptr noundef nonnull align 8 dereferenceable(136) %50)
  %52 = getelementptr inbounds nuw %"class.Luau::detail::DenseHashTable.63", ptr %11, i32 0, i32 3
  %53 = call noundef zeroext i1 @_ZNKSt8equal_toISt4pairIPKN4Luau4TypeES4_EEclERKS5_S8_(ptr noundef nonnull align 1 dereferenceable(1) %49, ptr noundef nonnull align 8 dereferenceable(16) %51, ptr noundef nonnull align 8 dereferenceable(16) %52)
  br i1 %53, label %54, label %55

54:                                               ; preds = %48
  store ptr null, ptr %3, align 8
  store i32 1, ptr %9, align 4
  br label %62

55:                                               ; preds = %48
  %56 = load i64, ptr %7, align 8, !tbaa !57
  %57 = load i64, ptr %8, align 8, !tbaa !57
  %58 = add i64 %56, %57
  %59 = add i64 %58, 1
  %60 = load i64, ptr %6, align 8, !tbaa !57
  %61 = and i64 %59, %60
  store i64 %61, ptr %7, align 8, !tbaa !57
  store i32 0, ptr %9, align 4
  br label %62

62:                                               ; preds = %55, %54, %46
  call void @llvm.lifetime.end.p0(i64 8, ptr %10) #4
  %63 = load i32, ptr %9, align 4
  switch i32 %63, label %68 [
    i32 0, label %64
  ]

64:                                               ; preds = %62
  br label %65

65:                                               ; preds = %64
  %66 = load i64, ptr %8, align 8, !tbaa !57
  %67 = add i64 %66, 1
  store i64 %67, ptr %8, align 8, !tbaa !57
  br label %31, !llvm.loop !1510

68:                                               ; preds = %62, %35
  call void @llvm.lifetime.end.p0(i64 8, ptr %8) #4
  %69 = load i32, ptr %9, align 4
  switch i32 %69, label %71 [
    i32 2, label %70
  ]

70:                                               ; preds = %68
  store ptr null, ptr %3, align 8
  store i32 1, ptr %9, align 4
  br label %71

71:                                               ; preds = %70, %68
  call void @llvm.lifetime.end.p0(i64 8, ptr %7) #4
  call void @llvm.lifetime.end.p0(i64 8, ptr %6) #4
  br label %72

72:                                               ; preds = %71, %21, %15
  %73 = load ptr, ptr %3, align 8
  ret ptr %73
}

; Function Attrs: mustprogress uwtable
define linkonce_odr dso_local noundef ptr @_ZNK4Luau12DenseHashMapISt4pairIPKNS_4TypeES4_ENS_15SubtypingResultENS_12TypePairHashESt8equal_toIS5_EE4findERKS5_(ptr noundef nonnull align 8 dereferenceable(48) %0, ptr noundef nonnull align 8 dereferenceable(16) %1) #6 comdat align 2 {
  %3 = alloca ptr, align 8
  %4 = alloca ptr, align 8
  %5 = alloca ptr, align 8
  store ptr %0, ptr %3, align 8, !tbaa !137
  store ptr %1, ptr %4, align 8, !tbaa !136
  %6 = load ptr, ptr %3, align 8
  call void @llvm.lifetime.start.p0(i64 8, ptr %5) #4
  %7 = getelementptr inbounds nuw %"class.Luau::DenseHashMap.62", ptr %6, i32 0, i32 0
  %8 = load ptr, ptr %4, align 8, !tbaa !136
  %9 = call noundef ptr @_ZNK4Luau6detail14DenseHashTableISt4pairIPKNS_4TypeES5_ES2_IS6_NS_15SubtypingResultEES2_IKS6_S7_ENS0_16ItemInterfaceMapIS6_S7_EENS_12TypePairHashESt8equal_toIS6_EE4findERS9_(ptr noundef nonnull align 8 dereferenceable(42) %7, ptr noundef nonnull align 8 dereferenceable(16) %8)
  store ptr %9, ptr %5, align 8, !tbaa !139
  %10 = load ptr, ptr %5, align 8, !tbaa !139
  %11 = icmp ne ptr %10, null
  br i1 %11, label %12, label %15

12:                                               ; preds = %2
  %13 = load ptr, ptr %5, align 8, !tbaa !139
  %14 = getelementptr inbounds nuw %"struct.std::pair.508", ptr %13, i32 0, i32 1
  br label %16

15:                                               ; preds = %2
  br label %16

16:                                               ; preds = %15, %12
  %17 = phi ptr [ %14, %12 ], [ null, %15 ]
  call void @llvm.lifetime.end.p0(i64 8, ptr %5) #4
  ret ptr %17
}

; Function Attrs: mustprogress uwtable
define dso_local noundef ptr @_ZNK4Luau20SubtypingEnvironment22tryFindSubtypingResultESt4pairIPKNS_4TypeES4_E(ptr noundef nonnull align 8 dereferenceable(176) %0, ptr %1, ptr %2) #6 align 2 {
  %4 = alloca ptr, align 8
  %5 = alloca %"struct.std::pair", align 8
  %6 = alloca ptr, align 8
  %7 = alloca ptr, align 8
  %8 = alloca i32, align 4
  %9 = alloca %"struct.std::pair", align 8
  %10 = getelementptr inbounds nuw { ptr, ptr }, ptr %5, i32 0, i32 0
  store ptr %1, ptr %10, align 8
  %11 = getelementptr inbounds nuw { ptr, ptr }, ptr %5, i32 0, i32 1
  store ptr %2, ptr %11, align 8
  store ptr %0, ptr %6, align 8, !tbaa !94
  %12 = load ptr, ptr %6, align 8
  call void @llvm.lifetime.start.p0(i64 8, ptr %7) #4
  %13 = getelementptr inbounds nuw %"struct.Luau::SubtypingEnvironment", ptr %12, i32 0, i32 4
  %14 = call noundef ptr @_ZNK4Luau12DenseHashMapISt4pairIPKNS_4TypeES4_ENS_15SubtypingResultENS_12TypePairHashESt8equal_toIS5_EE4findERKS5_(ptr noundef nonnull align 8 dereferenceable(48) %13, ptr noundef nonnull align 8 dereferenceable(16) %5)
  store ptr %14, ptr %7, align 8, !tbaa !37
  %15 = load ptr, ptr %7, align 8, !tbaa !37
  %16 = icmp ne ptr %15, null
  br i1 %16, label %17, label %19

17:                                               ; preds = %3
  %18 = load ptr, ptr %7, align 8, !tbaa !37
  store ptr %18, ptr %4, align 8
  store i32 1, ptr %8, align 4
  br label %20

19:                                               ; preds = %3
  store i32 0, ptr %8, align 4
  br label %20

20:                                               ; preds = %19, %17
  call void @llvm.lifetime.end.p0(i64 8, ptr %7) #4
  %21 = load i32, ptr %8, align 4
  switch i32 %21, label %37 [
    i32 0, label %22
    i32 1, label %35
  ]

22:                                               ; preds = %20
  %23 = getelementptr inbounds nuw %"struct.Luau::SubtypingEnvironment", ptr %12, i32 0, i32 0
  %24 = load ptr, ptr %23, align 8, !tbaa !113
  %25 = icmp ne ptr %24, null
  br i1 %25, label %26, label %34

26:                                               ; preds = %22
  %27 = getelementptr inbounds nuw %"struct.Luau::SubtypingEnvironment", ptr %12, i32 0, i32 0
  %28 = load ptr, ptr %27, align 8, !tbaa !113
  call void @llvm.memcpy.p0.p0.i64(ptr align 8 %9, ptr align 8 %5, i64 16, i1 false)
  %29 = getelementptr inbounds nuw { ptr, ptr }, ptr %9, i32 0, i32 0
  %30 = load ptr, ptr %29, align 8
  %31 = getelementptr inbounds nuw { ptr, ptr }, ptr %9, i32 0, i32 1
  %32 = load ptr, ptr %31, align 8
  %33 = call noundef ptr @_ZNK4Luau20SubtypingEnvironment22tryFindSubtypingResultESt4pairIPKNS_4TypeES4_E(ptr noundef nonnull align 8 dereferenceable(176) %28, ptr %30, ptr %32)
  store ptr %33, ptr %4, align 8
  br label %35

34:                                               ; preds = %22
  store ptr null, ptr %4, align 8
  br label %35

35:                                               ; preds = %34, %26, %20
  %36 = load ptr, ptr %4, align 8
  ret ptr %36

37:                                               ; preds = %20
  unreachable
}