; Function Attrs: mustprogress nofree norecurse nosync nounwind willreturn memory(read, inaccessiblemem: none) uwtable
define dso_local noundef ptr @_ZNK4Luau20SubtypingEnvironment22tryFindSubtypingResultESt4pairIPKNS_4TypeES4_E(ptr noundef nonnull readonly align 8 captures(none) dereferenceable(176) %0, ptr %1, ptr %2) local_unnamed_addr #9 align 2 {
  %4 = ptrtoint ptr %1 to i64
  %5 = lshr i64 %4, 4
  %6 = lshr i64 %4, 9
  %7 = xor i64 %5, %6
  %8 = ptrtoint ptr %2 to i64
  %9 = lshr i64 %8, 4
  %10 = lshr i64 %8, 9
  %11 = xor i64 %9, %10
  %12 = shl nuw nsw i64 %11, 1
  %13 = xor i64 %7, %12
  br label %tailrecurse

tailrecurse:                                      ; preds = %.loopexit, %3
  %.tr = phi ptr [ %0, %3 ], [ %46, %.loopexit ]
  %14 = getelementptr inbounds nuw i8, ptr %.tr, i64 128
  %15 = getelementptr inbounds nuw i8, ptr %.tr, i64 144
  %16 = load i64, ptr %15, align 8, !tbaa !112
  %17 = icmp eq i64 %16, 0
  br i1 %17, label %.loopexit, label %18

18:                                               ; preds = %tailrecurse
  %19 = getelementptr inbounds nuw i8, ptr %.tr, i64 152
  %20 = load ptr, ptr %19, align 8, !tbaa !113
  %21 = icmp eq ptr %1, %20
  %22 = getelementptr inbounds nuw i8, ptr %.tr, i64 160
  %23 = load ptr, ptr %22, align 8
  %24 = icmp eq ptr %2, %23
  %25 = select i1 %21, i1 %24, i1 false
  br i1 %25, label %.loopexit, label %26

26:                                               ; preds = %18
  %27 = getelementptr inbounds nuw i8, ptr %.tr, i64 136
  %28 = load i64, ptr %27, align 8, !tbaa !114
  %29 = add i64 %28, -1
  %30 = load ptr, ptr %14, align 8, !tbaa !115
  br label %31

31:                                               ; preds = %43, %26
  %.pn.i.i = phi i64 [ %13, %26 ], [ %45, %43 ]
  %.02028.i.i = phi i64 [ 0, %26 ], [ %44, %43 ]
  %.02129.i.i = and i64 %.pn.i.i, %29
  %32 = getelementptr inbounds nuw %"struct.std::pair.508", ptr %30, i64 %.02129.i.i
  %33 = load ptr, ptr %32, align 8, !tbaa !113
  %34 = icmp eq ptr %33, %1
  %35 = getelementptr inbounds nuw i8, ptr %32, i64 8
  %36 = load ptr, ptr %35, align 8
  %37 = icmp eq ptr %36, %2
  %38 = select i1 %34, i1 %37, i1 false
  br i1 %38, label %.split.loop.exit, label %39

39:                                               ; preds = %31
  %40 = icmp eq ptr %33, %20
  %41 = icmp eq ptr %36, %23
  %42 = select i1 %40, i1 %41, i1 false
  br i1 %42, label %.loopexit, label %43

43:                                               ; preds = %39
  %44 = add i64 %.02028.i.i, 1
  %45 = add i64 %44, %.02129.i.i
  %.not.i.i = icmp ugt i64 %44, %29
  br i1 %.not.i.i, label %.loopexit, label %31, !llvm.loop !116

.loopexit:                                        ; preds = %43, %39, %tailrecurse, %18
  %46 = load ptr, ptr %.tr, align 8, !tbaa !99
  %.not5 = icmp eq ptr %46, null
  br i1 %.not5, label %.split.loop.exit8, label %tailrecurse

.split.loop.exit:                                 ; preds = %31
  %47 = getelementptr inbounds nuw i8, ptr %32, i64 16
  br label %.split.loop.exit8

.split.loop.exit8:                                ; preds = %.loopexit, %.split.loop.exit
  %.1 = phi ptr [ %47, %.split.loop.exit ], [ null, %.loopexit ]
  ret ptr %.1
}